target datalayout = "e-m:e-p270:32:32-p271:32:32-p272:64:64-i64:64-i128:128-f80:128-n8:16:32:64-S128"
target triple = "x86_64-pc-linux-gnu"

%"class.Ipopt::Ma86SolverInterface" = type { %"class.Ipopt::SparseSymLinearSolverInterface.base", i32, ptr, i32, ptr, ptr, i8, %struct.ma86_control_d, double, i32, %"class.Ipopt::SmartPtr.3", ptr, ptr, ptr, ptr, ptr, ptr, ptr, ptr }
%"class.Ipopt::SparseSymLinearSolverInterface.base" = type { %"class.Ipopt::AlgorithmStrategyObject.base" }
%"class.Ipopt::AlgorithmStrategyObject.base" = type <{ %"class.Ipopt::ReferencedObject.base", [4 x i8], %"class.Ipopt::SmartPtr", %"class.Ipopt::SmartPtr.0", %"class.Ipopt::SmartPtr.1", %"class.Ipopt::SmartPtr.2", i8 }>
%"class.Ipopt::ReferencedObject.base" = type <{ ptr, i32 }>
%"class.Ipopt::SmartPtr" = type { ptr }
%"class.Ipopt::SmartPtr.0" = type { ptr }
%"class.Ipopt::SmartPtr.1" = type { ptr }
%"class.Ipopt::SmartPtr.2" = type { ptr }
%struct.ma86_control_d = type { i32, i32, i32, i32, i32, i32, i32, i32, i32, i32, double, double, double, double, i32 }
%"class.Ipopt::SmartPtr.3" = type { ptr }
%"class.Ipopt::AlgorithmStrategyObject" = type <{ %"class.Ipopt::ReferencedObject.base", [4 x i8], %"class.Ipopt::SmartPtr", %"class.Ipopt::SmartPtr.0", %"class.Ipopt::SmartPtr.1", %"class.Ipopt::SmartPtr.2", i8, [7 x i8] }>

@.str.43 = private unnamed_addr constant [52 x i8] c"Increasing pivot tolerance for HSL_MA86 from %7.2e \00", align 1
@.str.44 = private unnamed_addr constant [11 x i8] c"to %7.2e.\0A\00", align 1

; Function Attrs: inlinehint mustprogress nounwind uwtable
define linkonce_odr noundef nonnull align 8 dereferenceable(8) ptr @_ZSt3minIdERKT_S2_S2_(ptr noundef nonnull align 8 dereferenceable(8) %0, ptr noundef nonnull align 8 dereferenceable(8) %1) #9 comdat {
  %3 = alloca ptr, align 8
  %4 = alloca ptr, align 8
  %5 = alloca ptr, align 8
  store ptr %0, ptr %4, align 8, !tbaa !95
  store ptr %1, ptr %5, align 8, !tbaa !95
  %6 = load ptr, ptr %5, align 8, !tbaa !95
  %7 = load double, ptr %6, align 8, !tbaa !101
  %8 = load ptr, ptr %4, align 8, !tbaa !95
  %9 = load double, ptr %8, align 8, !tbaa !101
  %10 = fcmp olt double %7, %9
  br i1 %10, label %11, label %13

11:                                               ; preds = %2
  %12 = load ptr, ptr %5, align 8, !tbaa !95
  store ptr %12, ptr %3, align 8
  br label %15

13:                                               ; preds = %2
  %14 = load ptr, ptr %4, align 8, !tbaa !95
  store ptr %14, ptr %3, align 8
  br label %15

15:                                               ; preds = %13, %11
  %16 = load ptr, ptr %3, align 8
  ret ptr %16
}

; Function Attrs: mustprogress nounwind uwtable
define linkonce_odr noundef nonnull align 8 dereferenceable(40) ptr @_ZNK5Ipopt8SmartPtrIKNS_10JournalistEEdeEv(ptr noundef nonnull align 8 dereferenceable(8) %0) #4 comdat align 2 {
  %2 = alloca ptr, align 8
  store ptr %0, ptr %2, align 8, !tbaa !110
  %3 = load ptr, ptr %2, align 8
  %4 = getelementptr inbounds nuw %"class.Ipopt::SmartPtr", ptr %3, i32 0, i32 0
  %5 = load ptr, ptr %4, align 8, !tbaa !120
  ret ptr %5
}

; Function Attrs: inlinehint mustprogress uwtable
define linkonce_odr noundef double @_ZN5Ipopt3MinIdEET_S1_S1_(double noundef %0, double noundef %1) #12 comdat {
  %3 = alloca double, align 8
  %4 = alloca double, align 8
  store double %0, ptr %3, align 8, !tbaa !101
  store double %1, ptr %4, align 8, !tbaa !101
  %5 = call noundef nonnull align 8 dereferenceable(8) ptr @_ZSt3minIdERKT_S2_S2_(ptr noundef nonnull align 8 dereferenceable(8) %3, ptr noundef nonnull align 8 dereferenceable(8) %4)
  %6 = load double, ptr %5, align 8, !tbaa !101
  ret double %6
}

; Function Attrs: mustprogress uwtable
define linkonce_odr noundef nonnull align 8 dereferenceable(40) ptr @_ZNK5Ipopt23AlgorithmStrategyObject5JnlstEv(ptr noundef nonnull align 8 dereferenceable(49) %0) #7 comdat align 2 {
  %2 = alloca ptr, align 8
  store ptr %0, ptr %2, align 8, !tbaa !75
  %3 = load ptr, ptr %2, align 8
  %4 = getelementptr inbounds nuw %"class.Ipopt::AlgorithmStrategyObject", ptr %3, i32 0, i32 2
  %5 = call noundef nonnull align 8 dereferenceable(40) ptr @_ZNK5Ipopt8SmartPtrIKNS_10JournalistEEdeEv(ptr noundef nonnull align 8 dereferenceable(8) %4)
  ret ptr %5
}

; Function Attrs: mustprogress uwtable
define noundef zeroext i1 @_ZN5Ipopt19Ma86SolverInterface15IncreaseQualityEv(ptr noundef nonnull align 8 dereferenceable(264) %0) unnamed_addr #7 align 2 {
  %2 = alloca i1, align 1
  %3 = alloca ptr, align 8
  store ptr %0, ptr %3, align 8, !tbaa !3
  %4 = load ptr, ptr %3, align 8
  %5 = getelementptr inbounds nuw %"class.Ipopt::Ma86SolverInterface", ptr %4, i32 0, i32 7
  %6 = getelementptr inbounds nuw %struct.ma86_control_d, ptr %5, i32 0, i32 12
  %7 = load double, ptr %6, align 8, !tbaa !99
  %8 = getelementptr inbounds nuw %"class.Ipopt::Ma86SolverInterface", ptr %4, i32 0, i32 8
  %9 = load double, ptr %8, align 8, !tbaa !100
  %10 = fcmp oge double %7, %9
  br i1 %10, label %11, label %12

11:                                               ; preds = %1
  store i1 false, ptr %2, align 1
  br label %37

12:                                               ; preds = %1
  %13 = getelementptr inbounds nuw %"class.Ipopt::Ma86SolverInterface", ptr %4, i32 0, i32 6
  store i8 1, ptr %13, align 8, !tbaa !96
  %14 = call noundef nonnull align 8 dereferenceable(40) ptr @_ZNK5Ipopt23AlgorithmStrategyObject5JnlstEv(ptr noundef nonnull align 8 dereferenceable(49) %4)
  %15 = getelementptr inbounds nuw %"class.Ipopt::Ma86SolverInterface", ptr %4, i32 0, i32 7
  %16 = getelementptr inbounds nuw %struct.ma86_control_d, ptr %15, i32 0, i32 12
  %17 = load double, ptr %16, align 8, !tbaa !99
  %18 = load ptr, ptr %14, align 8, !tbaa !8
  %19 = getelementptr inbounds ptr, ptr %18, i64 2
  %20 = load ptr, ptr %19, align 8
  call void (ptr, i32, i32, ptr, ...) %20(ptr noundef nonnull align 8 dereferenceable(40) %14, i32 noundef 6, i32 noundef 7, ptr noundef @.str.43, double noundef %17)
  %21 = getelementptr inbounds nuw %"class.Ipopt::Ma86SolverInterface", ptr %4, i32 0, i32 8
  %22 = load double, ptr %21, align 8, !tbaa !100
  %23 = getelementptr inbounds nuw %"class.Ipopt::Ma86SolverInterface", ptr %4, i32 0, i32 7
  %24 = getelementptr inbounds nuw %struct.ma86_control_d, ptr %23, i32 0, i32 12
  %25 = load double, ptr %24, align 8, !tbaa !99
  %26 = call double @pow(double noundef %25, double noundef 7.500000e-01) #3, !tbaa !58
  %27 = call noundef double @_ZN5Ipopt3MinIdEET_S1_S1_(double noundef %22, double noundef %26)
  %28 = getelementptr inbounds nuw %"class.Ipopt::Ma86SolverInterface", ptr %4, i32 0, i32 7
  %29 = getelementptr inbounds nuw %struct.ma86_control_d, ptr %28, i32 0, i32 12
  store double %27, ptr %29, align 8, !tbaa !99
  %30 = call noundef nonnull align 8 dereferenceable(40) ptr @_ZNK5Ipopt23AlgorithmStrategyObject5JnlstEv(ptr noundef nonnull align 8 dereferenceable(49) %4)
  %31 = getelementptr inbounds nuw %"class.Ipopt::Ma86SolverInterface", ptr %4, i32 0, i32 7
  %32 = getelementptr inbounds nuw %struct.ma86_control_d, ptr %31, i32 0, i32 12
  %33 = load double, ptr %32, align 8, !tbaa !99
  %34 = load ptr, ptr %30, align 8, !tbaa !8
  %35 = getelementptr inbounds ptr, ptr %34, i64 2
  %36 = load ptr, ptr %35, align 8
  call void (ptr, i32, i32, ptr, ...) %36(ptr noundef nonnull align 8 dereferenceable(40) %30, i32 noundef 6, i32 noundef 7, ptr noundef @.str.44, double noundef %33)
  store i1 true, ptr %2, align 1
  br label %37

37:                                               ; preds = %12, %11
  %38 = load i1, ptr %2, align 1
  ret i1 %38
}