; Function Attrs: mustprogress uwtable
define noundef zeroext i1 @_ZN5Ipopt19Ma86SolverInterface15IncreaseQualityEv(ptr noundef nonnull align 8 captures(none) dereferenceable(264) %0) unnamed_addr #7 align 2 {
  %2 = getelementptr inbounds nuw i8, ptr %0, i64 152
  %3 = load double, ptr %2, align 8, !tbaa !87
  %4 = getelementptr inbounds nuw i8, ptr %0, i64 176
  %5 = load double, ptr %4, align 8, !tbaa !88
  %6 = fcmp ult double %3, %5
  br i1 %6, label %7, label %22

7:                                                ; preds = %1
  %8 = getelementptr inbounds nuw i8, ptr %0, i64 88
  store i8 1, ptr %8, align 8, !tbaa !85
  %9 = getelementptr inbounds nuw i8, ptr %0, i64 16
  %10 = load ptr, ptr %9, align 8, !tbaa !37
  %11 = load ptr, ptr %10, align 8, !tbaa !3
  %12 = getelementptr inbounds nuw i8, ptr %11, i64 16
  %13 = load ptr, ptr %12, align 8
  tail call void (ptr, i32, i32, ptr, ...) %13(ptr noundef nonnull align 8 dereferenceable(40) %10, i32 noundef 6, i32 noundef 7, ptr noundef nonnull @.str.43, double noundef %3)
  %14 = load double, ptr %4, align 8, !tbaa !88
  %15 = load double, ptr %2, align 8, !tbaa !87
  %16 = tail call double @pow(double noundef %15, double noundef 7.500000e-01) #17, !tbaa !59
  %17 = fcmp olt double %16, %14
  %.sroa.speculated.i = select i1 %17, double %16, double %14
  store double %.sroa.speculated.i, ptr %2, align 8, !tbaa !87
  %18 = load ptr, ptr %9, align 8, !tbaa !37
  %19 = load ptr, ptr %18, align 8, !tbaa !3
  %20 = getelementptr inbounds nuw i8, ptr %19, i64 16
  %21 = load ptr, ptr %20, align 8
  tail call void (ptr, i32, i32, ptr, ...) %21(ptr noundef nonnull align 8 dereferenceable(40) %18, i32 noundef 6, i32 noundef 7, ptr noundef nonnull @.str.44, double noundef %.sroa.speculated.i)
  br label %22

22:                                               ; preds = %1, %7
  ret i1 %6
}